; Function Attrs: mustprogress nounwind
define internal fastcc noundef zeroext i1 @_ZN4mold3elfL7is_fileESt17basic_string_viewIcSt11char_traitsIcEE(i64 %path.coerce0, ptr %path.coerce1) unnamed_addr #4 {
entry:
  %st = alloca %struct.stat, align 8
  %ref.tmp = alloca %"class.std::__cxx11::basic_string", align 8
  %ref.tmp1 = alloca %"class.std::allocator", align 1
  call void @_ZNSaIcEC1Ev(ptr noundef nonnull align 1 dereferenceable(1) %ref.tmp1) #21
  call void @_ZNSt7__cxx1112basic_stringIcSt11char_traitsIcESaIcEEC2EPKcmRKS3_(ptr noundef nonnull align 8 dereferenceable(32) %ref.tmp, ptr noundef %path.coerce1, i64 noundef %path.coerce0, ptr noundef nonnull align 1 dereferenceable(1) %ref.tmp1)
  %0 = load ptr, ptr %ref.tmp, align 8
  %call2 = call i32 @stat(ptr noundef %0, ptr noundef nonnull %st) #21
  %st_mode = getelementptr inbounds i8, ptr %st, i64 24
  %1 = load i32, ptr %st_mode, align 8
  %2 = load ptr, ptr %ref.tmp, align 8
  %3 = getelementptr inbounds i8, ptr %ref.tmp, i64 16
  %cmp.i.i.i = icmp eq ptr %2, %3
  br i1 %cmp.i.i.i, label %_ZNKSt7__cxx1112basic_stringIcSt11char_traitsIcESaIcEE11_M_is_localEv.exit.thread.i.i, label %if.then.i.i

_ZNKSt7__cxx1112basic_stringIcSt11char_traitsIcESaIcEE11_M_is_localEv.exit.thread.i.i: ; preds = %entry
  %_M_string_length.i.i.i = getelementptr inbounds i8, ptr %ref.tmp, i64 8
  %4 = load i64, ptr %_M_string_length.i.i.i, align 8
  %cmp3.i.i.i = icmp ult i64 %4, 16
  call void @llvm.assume(i1 %cmp3.i.i.i)
  br label %_ZNSt7__cxx1112basic_stringIcSt11char_traitsIcESaIcEED2Ev.exit

if.then.i.i:                                      ; preds = %entry
  call void @_ZdlPv(ptr noundef %2) #28
  br label %_ZNSt7__cxx1112basic_stringIcSt11char_traitsIcESaIcEED2Ev.exit

_ZNSt7__cxx1112basic_stringIcSt11char_traitsIcESaIcEED2Ev.exit: ; preds = %_ZNKSt7__cxx1112basic_stringIcSt11char_traitsIcESaIcEE11_M_is_localEv.exit.thread.i.i, %if.then.i.i
  %cmp = icmp eq i32 %call2, 0
  %and = and i32 %1, 61440
  %cmp3 = icmp ne i32 %and, 16384
  %5 = select i1 %cmp, i1 %cmp3, i1 false
  call void @_ZNSaIcED2Ev(ptr noundef nonnull align 1 dereferenceable(1) %ref.tmp) #21
  call void @_ZNSaIcED1Ev(ptr noundef nonnull align 1 dereferenceable(1) %ref.tmp1) #21
  ret i1 %5
}